target datalayout = "e-m:e-p270:32:32-p271:32:32-p272:64:64-i64:64-i128:128-f80:128-n8:16:32:64-S128"
target triple = "x86_64-pc-linux-gnu"

%struct.expert_field = type { i32, i32 }

@hf_nfapi_earfcn = internal global i32 0, align 4
@hf_nfapi_bandwidth = internal global i32 0, align 4
@hf_nfapi_timeout = internal global i32 0, align 4
@hf_nfapi_pci = internal global i32 0, align 4
@hf_nfapi_number_of_tx_antenna = internal global i32 0, align 4
@hf_nfapi_phich_configuration = internal global i32 0, align 4
@hf_nfapi_retry_count = internal global i32 0, align 4
@ei_invalid_range = internal global %struct.expert_field zeroinitializer, align 4
@.str.2332 = private unnamed_addr constant [49 x i8] c"Invalid bandwidth value [6, 15, 25, 50, 75, 100]\00", align 1
@.str.2342 = private unnamed_addr constant [45 x i8] c"Invalid number of tx antenna value [1, 2, 4]\00", align 1

; Function Attrs: nounwind uwtable
define internal void @dissect_lte_system_information_schedule_request_value(ptr noundef %0, ptr noundef %1) #0 {
  %3 = alloca ptr, align 8
  %4 = alloca ptr, align 8
  %5 = alloca ptr, align 8
  %6 = alloca i32, align 4
  store ptr %0, ptr %3, align 8
  store ptr %1, ptr %4, align 8
  %7 = load ptr, ptr %3, align 8
  %8 = load i32, ptr @hf_nfapi_earfcn, align 4
  %9 = call ptr @ptvcursor_add(ptr noundef %7, i32 noundef %8, i32 noundef 2, i32 noundef 0)
  %10 = load ptr, ptr %3, align 8
  %11 = load i32, ptr @hf_nfapi_pci, align 4
  %12 = call ptr @ptvcursor_add(ptr noundef %10, i32 noundef %11, i32 noundef 2, i32 noundef 0)
  %13 = load ptr, ptr %3, align 8
  %14 = load i32, ptr @hf_nfapi_bandwidth, align 4
  %15 = call ptr @ptvcursor_add_ret_uint(ptr noundef %13, i32 noundef %14, i32 noundef 2, i32 noundef 0, ptr noundef %6)
  store ptr %15, ptr %5, align 8
  %16 = load i32, ptr %6, align 4
  %17 = icmp eq i32 %16, 6
  br i1 %17, label %37, label %18

18:                                               ; preds = %2
  %19 = load i32, ptr %6, align 4
  %20 = icmp eq i32 %19, 15
  br i1 %20, label %37, label %21

21:                                               ; preds = %18
  %22 = load i32, ptr %6, align 4
  %23 = icmp eq i32 %22, 25
  br i1 %23, label %37, label %24

24:                                               ; preds = %21
  %25 = load i32, ptr %6, align 4
  %26 = icmp eq i32 %25, 50
  br i1 %26, label %37, label %27

27:                                               ; preds = %24
  %28 = load i32, ptr %6, align 4
  %29 = icmp eq i32 %28, 75
  br i1 %29, label %37, label %30

30:                                               ; preds = %27
  %31 = load i32, ptr %6, align 4
  %32 = icmp eq i32 %31, 100
  br i1 %32, label %37, label %33

33:                                               ; preds = %30
  %34 = load ptr, ptr %4, align 8
  %35 = load ptr, ptr %5, align 8
  %36 = call ptr (ptr, ptr, ptr, ptr, ...) @expert_add_info_format(ptr noundef %34, ptr noundef %35, ptr noundef @ei_invalid_range, ptr noundef @.str.2332)
  br label %37

37:                                               ; preds = %33, %30, %27, %24, %21, %18, %2
  %38 = load ptr, ptr %3, align 8
  %39 = load i32, ptr @hf_nfapi_phich_configuration, align 4
  %40 = call ptr @ptvcursor_add(ptr noundef %38, i32 noundef %39, i32 noundef 1, i32 noundef 0)
  %41 = load ptr, ptr %3, align 8
  %42 = load i32, ptr @hf_nfapi_number_of_tx_antenna, align 4
  %43 = call ptr @ptvcursor_add_ret_uint(ptr noundef %41, i32 noundef %42, i32 noundef 1, i32 noundef 0, ptr noundef %6)
  store ptr %43, ptr %5, align 8
  %44 = load i32, ptr %6, align 4
  %45 = icmp eq i32 %44, 1
  br i1 %45, label %56, label %46

46:                                               ; preds = %37
  %47 = load i32, ptr %6, align 4
  %48 = icmp eq i32 %47, 2
  br i1 %48, label %56, label %49

49:                                               ; preds = %46
  %50 = load i32, ptr %6, align 4
  %51 = icmp eq i32 %50, 4
  br i1 %51, label %56, label %52

52:                                               ; preds = %49
  %53 = load ptr, ptr %4, align 8
  %54 = load ptr, ptr %5, align 8
  %55 = call ptr (ptr, ptr, ptr, ptr, ...) @expert_add_info_format(ptr noundef %53, ptr noundef %54, ptr noundef @ei_invalid_range, ptr noundef @.str.2342)
  br label %56

56:                                               ; preds = %52, %49, %46, %37
  %57 = load ptr, ptr %3, align 8
  %58 = load i32, ptr @hf_nfapi_retry_count, align 4
  %59 = call ptr @ptvcursor_add(ptr noundef %57, i32 noundef %58, i32 noundef 1, i32 noundef 0)
  %60 = load ptr, ptr %3, align 8
  %61 = load i32, ptr @hf_nfapi_timeout, align 4
  %62 = call ptr @ptvcursor_add(ptr noundef %60, i32 noundef %61, i32 noundef 4, i32 noundef 0)
  ret void
}