; Function Attrs: nounwind uwtable
define internal void @dissect_lte_system_information_schedule_request_value(ptr noundef %0, ptr noundef %1) #0 {
  %3 = alloca i32, align 4
  %4 = load i32, ptr @hf_nfapi_earfcn, align 4
  %5 = tail call ptr @ptvcursor_add(ptr noundef %0, i32 noundef %4, i32 noundef 2, i32 noundef 0) #7
  %6 = load i32, ptr @hf_nfapi_pci, align 4
  %7 = tail call ptr @ptvcursor_add(ptr noundef %0, i32 noundef %6, i32 noundef 2, i32 noundef 0) #7
  %8 = load i32, ptr @hf_nfapi_bandwidth, align 4
  %9 = call ptr @ptvcursor_add_ret_uint(ptr noundef %0, i32 noundef %8, i32 noundef 2, i32 noundef 0, ptr noundef nonnull %3) #7
  %10 = load i32, ptr %3, align 4
  switch i32 %10, label %11 [
    i32 100, label %13
    i32 75, label %13
    i32 50, label %13
    i32 25, label %13
    i32 15, label %13
    i32 6, label %13
  ]

11:                                               ; preds = %2
  %12 = call ptr (ptr, ptr, ptr, ptr, ...) @expert_add_info_format(ptr noundef %1, ptr noundef %9, ptr noundef nonnull @ei_invalid_range, ptr noundef nonnull @.str.2332) #7
  br label %13

13:                                               ; preds = %2, %2, %2, %2, %2, %2, %11
  %14 = load i32, ptr @hf_nfapi_phich_configuration, align 4
  %15 = call ptr @ptvcursor_add(ptr noundef %0, i32 noundef %14, i32 noundef 1, i32 noundef 0) #7
  %16 = load i32, ptr @hf_nfapi_number_of_tx_antenna, align 4
  %17 = call ptr @ptvcursor_add_ret_uint(ptr noundef %0, i32 noundef %16, i32 noundef 1, i32 noundef 0, ptr noundef nonnull %3) #7
  %18 = load i32, ptr %3, align 4
  switch i32 %18, label %19 [
    i32 4, label %21
    i32 2, label %21
    i32 1, label %21
  ]

19:                                               ; preds = %13
  %20 = call ptr (ptr, ptr, ptr, ptr, ...) @expert_add_info_format(ptr noundef %1, ptr noundef %17, ptr noundef nonnull @ei_invalid_range, ptr noundef nonnull @.str.2342) #7
  br label %21

21:                                               ; preds = %13, %13, %13, %19
  %22 = load i32, ptr @hf_nfapi_retry_count, align 4
  %23 = call ptr @ptvcursor_add(ptr noundef %0, i32 noundef %22, i32 noundef 1, i32 noundef 0) #7
  %24 = load i32, ptr @hf_nfapi_timeout, align 4
  %25 = call ptr @ptvcursor_add(ptr noundef %0, i32 noundef %24, i32 noundef 4, i32 noundef 0) #7
  ret void
}